target datalayout = "e-m:e-p270:32:32-p271:32:32-p272:64:64-i64:64-i128:128-f80:128-n8:16:32:64-S128"
target triple = "x86_64-unknown-linux-gnu"

%struct.AioContext = type { %struct._GSource, %struct.QemuRecMutex, ptr, %struct.AioHandlerList, %struct.AioHandlerList, i32, %struct.QemuLockCnt, %struct.BHList, %struct.anon.1, i8, %struct.EventNotifier, %struct.anon.2, ptr, i32, i32, ptr, ptr, %struct.io_uring, %struct.AioHandlerSList, %struct.QEMUTimerListGroup, i32, i64, i64, i64, i64, i64, %struct.AioHandlerList, i8, i32, ptr }
%struct._GSource = type { ptr, ptr, ptr, i32, ptr, i32, i32, i32, ptr, ptr, ptr, ptr, ptr }
%struct.QemuRecMutex = type { %struct.QemuMutex }
%struct.QemuMutex = type { %union.pthread_mutex_t, i8 }
%union.pthread_mutex_t = type { %struct.__pthread_mutex_s }
%struct.__pthread_mutex_s = type { i32, i32, i32, i32, i32, i16, i16, %struct.__pthread_internal_list }
%struct.__pthread_internal_list = type { ptr, ptr }
%struct.QemuLockCnt = type { i32 }
%struct.BHList = type { ptr }
%struct.anon.1 = type { ptr, ptr }
%struct.EventNotifier = type { i32, i32, i8 }
%struct.anon.2 = type { ptr }
%struct.io_uring = type { %struct.io_uring_sq, %struct.io_uring_cq, i32, i32, i32, [3 x i32] }
%struct.io_uring_sq = type { ptr, ptr, ptr, ptr, ptr, ptr, ptr, ptr, i32, i32, i64, ptr, [4 x i32] }
%struct.io_uring_cq = type { ptr, ptr, ptr, ptr, ptr, ptr, ptr, i64, ptr, [4 x i32] }
%struct.AioHandlerSList = type { ptr }
%struct.QEMUTimerListGroup = type { [4 x ptr] }
%struct.AioHandlerList = type { ptr }
%struct.Coroutine = type { ptr, ptr, ptr, %struct.anon.3, i64, ptr, ptr, %struct.anon.4, %struct.anon.5, %struct.anon.6 }
%struct.anon.3 = type { ptr }
%struct.anon.4 = type { ptr }
%struct.anon.5 = type { ptr, ptr }
%struct.anon.6 = type { ptr }

@.str = private unnamed_addr constant [21 x i8] c"../qemu/util/async.c\00", align 1
@.str.6 = private unnamed_addr constant [11 x i8] c"self != co\00", align 1
@__PRETTY_FUNCTION__.aio_co_enter = private unnamed_addr constant [45 x i8] c"void aio_co_enter(AioContext *, Coroutine *)\00", align 1
@__func__.aio_context_acquire = private unnamed_addr constant [20 x i8] c"aio_context_acquire\00", align 1
@qemu_rec_mutex_lock_func = external global ptr, align 8
@co_tls_my_aiocontext = internal thread_local global ptr null, align 8

; Function Attrs: nounwind sspstrong uwtable
define internal ptr @get_my_aiocontext() #0 {
entry:
  call void asm sideeffect "", "~{dirflag},~{fpsr},~{flags}"() #11, !srcloc !20
  %0 = call align 8 ptr @llvm.threadlocal.address.p0(ptr align 8 @co_tls_my_aiocontext)
  %1 = load ptr, ptr %0, align 8
  ret ptr %1
}

; Function Attrs: nounwind sspstrong uwtable
define dso_local void @aio_context_release(ptr noundef %ctx) #0 {
entry:
  %ctx.addr = alloca ptr, align 8
  store ptr %ctx, ptr %ctx.addr, align 8
  %0 = load ptr, ptr %ctx.addr, align 8
  %lock = getelementptr inbounds %struct.AioContext, ptr %0, i32 0, i32 1
  call void @qemu_rec_mutex_unlock_impl(ptr noundef %lock, ptr noundef @.str, i32 noundef 733)
  ret void
}

; Function Attrs: nounwind sspstrong uwtable
define dso_local void @aio_context_acquire(ptr noundef %ctx) #0 {
entry:
  %ctx.addr = alloca ptr, align 8
  %_f = alloca ptr, align 8
  %tmp = alloca ptr, align 8
  %atomic-temp = alloca ptr, align 8
  store ptr %ctx, ptr %ctx.addr, align 8
  br label %while.cond

while.cond:                                       ; preds = %do.end, %entry
  br i1 false, label %while.body, label %while.end

while.body:                                       ; preds = %while.cond
  br label %do.body

do.body:                                          ; preds = %while.body
  call void @g_assertion_message_expr(ptr noundef null, ptr noundef @.str, i32 noundef 728, ptr noundef @__func__.aio_context_acquire, ptr noundef null) #10
  unreachable

do.end:                                           ; No predecessors!
  br label %while.cond

while.end:                                        ; preds = %while.cond
  %0 = load atomic i64, ptr @qemu_rec_mutex_lock_func monotonic, align 8
  store i64 %0, ptr %atomic-temp, align 8
  %1 = load ptr, ptr %atomic-temp, align 8
  store ptr %1, ptr %tmp, align 8
  %2 = load ptr, ptr %tmp, align 8
  store ptr %2, ptr %_f, align 8
  %3 = load ptr, ptr %_f, align 8
  %4 = load ptr, ptr %ctx.addr, align 8
  %lock = getelementptr inbounds %struct.AioContext, ptr %4, i32 0, i32 1
  call void %3(ptr noundef %lock, ptr noundef @.str, i32 noundef 728)
  ret void
}

; Function Attrs: nounwind sspstrong uwtable
define dso_local ptr @qemu_get_current_aio_context() #0 {
entry:
  %retval = alloca ptr, align 8
  %ctx = alloca ptr, align 8
  %call = call ptr @get_my_aiocontext()
  store ptr %call, ptr %ctx, align 8
  %0 = load ptr, ptr %ctx, align 8
  %tobool = icmp ne ptr %0, null
  br i1 %tobool, label %if.then, label %if.end

if.then:                                          ; preds = %entry
  %1 = load ptr, ptr %ctx, align 8
  store ptr %1, ptr %retval, align 8
  br label %return

if.end:                                           ; preds = %entry
  %call1 = call zeroext i1 @qemu_mutex_iothread_locked()
  br i1 %call1, label %if.then2, label %if.end4

if.then2:                                         ; preds = %if.end
  %call3 = call ptr @qemu_get_aio_context()
  store ptr %call3, ptr %retval, align 8
  br label %return

if.end4:                                          ; preds = %if.end
  store ptr null, ptr %retval, align 8
  br label %return

return:                                           ; preds = %if.end4, %if.then2, %if.then
  %2 = load ptr, ptr %retval, align 8
  ret ptr %2
}

; Function Attrs: nounwind sspstrong uwtable
define dso_local void @aio_co_enter(ptr noundef %ctx, ptr noundef %co) #0 {
entry:
  %ctx.addr = alloca ptr, align 8
  %co.addr = alloca ptr, align 8
  %self = alloca ptr, align 8
  store ptr %ctx, ptr %ctx.addr, align 8
  store ptr %co, ptr %co.addr, align 8
  %0 = load ptr, ptr %ctx.addr, align 8
  %call = call ptr @qemu_get_current_aio_context()
  %cmp = icmp ne ptr %0, %call
  br i1 %cmp, label %if.then, label %if.end

if.then:                                          ; preds = %entry
  %1 = load ptr, ptr %ctx.addr, align 8
  %2 = load ptr, ptr %co.addr, align 8
  call void @aio_co_schedule(ptr noundef %1, ptr noundef %2)
  br label %if.end12

if.end:                                           ; preds = %entry
  %call1 = call zeroext i1 @qemu_in_coroutine()
  br i1 %call1, label %if.then2, label %if.else11

if.then2:                                         ; preds = %if.end
  %call3 = call ptr @qemu_coroutine_self()
  store ptr %call3, ptr %self, align 8
  %3 = load ptr, ptr %self, align 8
  %4 = load ptr, ptr %co.addr, align 8
  %cmp4 = icmp ne ptr %3, %4
  br i1 %cmp4, label %if.then5, label %if.else

if.then5:                                         ; preds = %if.then2
  br label %if.end6

if.else:                                          ; preds = %if.then2
  call void @__assert_fail(ptr noundef @.str.6, ptr noundef @.str, i32 noundef 707, ptr noundef @__PRETTY_FUNCTION__.aio_co_enter) #12
  unreachable

if.end6:                                          ; preds = %if.then5
  br label %do.body

do.body:                                          ; preds = %if.end6
  %5 = load ptr, ptr %co.addr, align 8
  %co_queue_next = getelementptr inbounds %struct.Coroutine, ptr %5, i32 0, i32 7
  %sqe_next = getelementptr inbounds %struct.anon.4, ptr %co_queue_next, i32 0, i32 0
  store ptr null, ptr %sqe_next, align 8
  %6 = load ptr, ptr %co.addr, align 8
  %7 = load ptr, ptr %self, align 8
  %co_queue_wakeup = getelementptr inbounds %struct.Coroutine, ptr %7, i32 0, i32 8
  %sqh_last = getelementptr inbounds %struct.anon.5, ptr %co_queue_wakeup, i32 0, i32 1
  %8 = load ptr, ptr %sqh_last, align 8
  store ptr %6, ptr %8, align 8
  %9 = load ptr, ptr %co.addr, align 8
  %co_queue_next7 = getelementptr inbounds %struct.Coroutine, ptr %9, i32 0, i32 7
  %sqe_next8 = getelementptr inbounds %struct.anon.4, ptr %co_queue_next7, i32 0, i32 0
  %10 = load ptr, ptr %self, align 8
  %co_queue_wakeup9 = getelementptr inbounds %struct.Coroutine, ptr %10, i32 0, i32 8
  %sqh_last10 = getelementptr inbounds %struct.anon.5, ptr %co_queue_wakeup9, i32 0, i32 1
  store ptr %sqe_next8, ptr %sqh_last10, align 8
  br label %do.end

do.end:                                           ; preds = %do.body
  br label %if.end12

if.else11:                                        ; preds = %if.end
  %11 = load ptr, ptr %ctx.addr, align 8
  call void @aio_context_acquire(ptr noundef %11)
  %12 = load ptr, ptr %ctx.addr, align 8
  %13 = load ptr, ptr %co.addr, align 8
  call void @qemu_aio_coroutine_enter(ptr noundef %12, ptr noundef %13)
  %14 = load ptr, ptr %ctx.addr, align 8
  call void @aio_context_release(ptr noundef %14)
  br label %if.end12

if.end12:                                         ; preds = %if.else11, %do.end, %if.then
  ret void
}