; Function Attrs: nounwind sspstrong uwtable
define dso_local void @aio_co_enter(ptr noundef %ctx, ptr noundef %co) local_unnamed_addr #0 {
entry:
  tail call void asm sideeffect "", "~{dirflag},~{fpsr},~{flags}"() #13, !srcloc !19
  %0 = tail call align 8 ptr @llvm.threadlocal.address.p0(ptr align 8 @co_tls_my_aiocontext)
  %1 = load ptr, ptr %0, align 8
  %tobool.not.i = icmp eq ptr %1, null
  br i1 %tobool.not.i, label %if.end.i, label %qemu_get_current_aio_context.exit

if.end.i:                                         ; preds = %entry
  %call1.i = tail call zeroext i1 @qemu_mutex_iothread_locked() #13
  br i1 %call1.i, label %if.then2.i, label %qemu_get_current_aio_context.exit

if.then2.i:                                       ; preds = %if.end.i
  %call3.i = tail call ptr @qemu_get_aio_context() #13
  br label %qemu_get_current_aio_context.exit

qemu_get_current_aio_context.exit:                ; preds = %entry, %if.end.i, %if.then2.i
  %retval.0.i = phi ptr [ %call3.i, %if.then2.i ], [ %1, %entry ], [ null, %if.end.i ]
  %cmp.not = icmp eq ptr %ctx, %retval.0.i
  br i1 %cmp.not, label %if.end, label %if.then

if.then:                                          ; preds = %qemu_get_current_aio_context.exit
  tail call void @aio_co_schedule(ptr noundef %ctx, ptr noundef %co)
  br label %if.end12

if.end:                                           ; preds = %qemu_get_current_aio_context.exit
  %call1 = tail call zeroext i1 @qemu_in_coroutine() #13
  br i1 %call1, label %if.then2, label %if.else11

if.then2:                                         ; preds = %if.end
  %call3 = tail call ptr @qemu_coroutine_self() #13
  %cmp4.not = icmp eq ptr %call3, %co
  br i1 %cmp4.not, label %if.else, label %do.body

if.else:                                          ; preds = %if.then2
  tail call void @__assert_fail(ptr noundef nonnull @.str.6, ptr noundef nonnull @.str, i32 noundef 707, ptr noundef nonnull @__PRETTY_FUNCTION__.aio_co_enter) #14
  unreachable

do.body:                                          ; preds = %if.then2
  %co_queue_next = getelementptr inbounds nuw i8, ptr %co, i64 56
  store ptr null, ptr %co_queue_next, align 8
  %sqh_last = getelementptr inbounds nuw i8, ptr %call3, i64 72
  %2 = load ptr, ptr %sqh_last, align 8
  store ptr %co, ptr %2, align 8
  store ptr %co_queue_next, ptr %sqh_last, align 8
  br label %if.end12

if.else11:                                        ; preds = %if.end
  %3 = load atomic i64, ptr @qemu_rec_mutex_lock_func monotonic, align 8
  %4 = inttoptr i64 %3 to ptr
  %lock.i = getelementptr inbounds nuw i8, ptr %ctx, i64 96
  tail call void %4(ptr noundef nonnull %lock.i, ptr noundef nonnull @.str, i32 noundef 728) #13
  tail call void @qemu_aio_coroutine_enter(ptr noundef %ctx, ptr noundef %co) #13
  tail call void @qemu_rec_mutex_unlock_impl(ptr noundef nonnull %lock.i, ptr noundef nonnull @.str, i32 noundef 733) #13
  br label %if.end12

if.end12:                                         ; preds = %if.else11, %do.body, %if.then
  ret void
}